; Function Attrs: mustprogress uwtable
define hidden noundef zeroext i1 @_ZNK6Assimp11X3DImporter7CanReadERKNSt7__cxx1112basic_stringIcSt11char_traitsIcESaIcEEEPNS_8IOSystemEb(ptr nonnull readnone align 8 captures(none) %0, ptr noundef nonnull align 8 dereferenceable(32) %1, ptr readnone captures(none) %2, i1 noundef zeroext %3) unnamed_addr #4 align 2 personality ptr @__gxx_personality_v0 {
  %5 = alloca %"class.std::__cxx11::basic_string", align 8
  br i1 %3, label %6, label %17

6:                                                ; preds = %4
  call void @llvm.lifetime.start.p0(i64 32, ptr nonnull %5) #31
  call void @_ZN6Assimp12BaseImporter12GetExtensionERKNSt7__cxx1112basic_stringIcSt11char_traitsIcESaIcEEE(ptr dead_on_unwind nonnull writable sret(%"class.std::__cxx11::basic_string") align 8 %5, ptr noundef nonnull align 8 dereferenceable(32) %1)
  %7 = call noundef i32 @_ZNKSt7__cxx1112basic_stringIcSt11char_traitsIcESaIcEE7compareEPKc(ptr noundef nonnull align 8 dereferenceable(32) %5, ptr noundef nonnull @.str.210) #31
  %8 = icmp eq i32 %7, 0
  %9 = load ptr, ptr %5, align 8
  %10 = getelementptr inbounds nuw i8, ptr %5, i64 16
  %11 = icmp eq ptr %9, %10
  br i1 %11, label %_ZNKSt7__cxx1112basic_stringIcSt11char_traitsIcESaIcEE11_M_is_localEv.exit.thread.i.i, label %_ZNKSt7__cxx1112basic_stringIcSt11char_traitsIcESaIcEE11_M_is_localEv.exit.i.i

_ZNKSt7__cxx1112basic_stringIcSt11char_traitsIcESaIcEE11_M_is_localEv.exit.thread.i.i: ; preds = %6
  %12 = getelementptr inbounds nuw i8, ptr %5, i64 8
  %13 = load i64, ptr %12, align 8
  %14 = icmp ult i64 %13, 16
  call void @llvm.assume(i1 %14)
  br label %_ZNSt7__cxx1112basic_stringIcSt11char_traitsIcESaIcEED2Ev.exit

_ZNKSt7__cxx1112basic_stringIcSt11char_traitsIcESaIcEE11_M_is_localEv.exit.i.i: ; preds = %6
  %15 = load i64, ptr %10, align 8
  %16 = add i64 %15, 1
  call void @_ZdlPvm(ptr noundef %9, i64 noundef %16) #33
  br label %_ZNSt7__cxx1112basic_stringIcSt11char_traitsIcESaIcEED2Ev.exit

_ZNSt7__cxx1112basic_stringIcSt11char_traitsIcESaIcEED2Ev.exit: ; preds = %_ZNKSt7__cxx1112basic_stringIcSt11char_traitsIcESaIcEE11_M_is_localEv.exit.thread.i.i, %_ZNKSt7__cxx1112basic_stringIcSt11char_traitsIcESaIcEE11_M_is_localEv.exit.i.i
  call void @llvm.lifetime.end.p0(i64 32, ptr nonnull %5) #31
  br i1 %8, label %18, label %17

17:                                               ; preds = %_ZNSt7__cxx1112basic_stringIcSt11char_traitsIcESaIcEED2Ev.exit, %4
  br label %18

18:                                               ; preds = %_ZNSt7__cxx1112basic_stringIcSt11char_traitsIcESaIcEED2Ev.exit, %17
  %.0 = phi i1 [ false, %17 ], [ true, %_ZNSt7__cxx1112basic_stringIcSt11char_traitsIcESaIcEED2Ev.exit ]
  ret i1 %.0
}